; Function Attrs: mustprogress nofree norecurse nosync nounwind willreturn memory(argmem: readwrite) uwtable
define void @_ZNK10ColorValue8getColorEv(ptr dead_on_unwind noalias nocapture writable writeonly sret(%class.QColor) align 4 %0, ptr nocapture noundef nonnull readonly align 8 dereferenceable(24) %1) unnamed_addr #2 align 2 {
  %3 = getelementptr inbounds i8, ptr %1, i64 8
  %4 = load i32, ptr %3, align 8
  store i32 %4, ptr %0, align 4
  %5 = getelementptr inbounds i8, ptr %0, i64 4
  %6 = getelementptr inbounds i8, ptr %1, i64 12
  tail call void @llvm.memcpy.p0.p0.i64(ptr noundef nonnull align 4 dereferenceable(10) %5, ptr noundef nonnull align 4 dereferenceable(10) %6, i64 10, i1 false)
  ret void
}